target datalayout = "e-m:e-p270:32:32-p271:32:32-p272:64:64-i64:64-i128:128-f80:128-n8:16:32:64-S128"
target triple = "x86_64-pc-linux-gnu"

%struct.ObjectAddress = type { i32, i32, i32 }
%struct.RelationData = type { %struct.RelFileLocator, ptr, i32, i32, i8, i8, i8, i8, i8, i32, i32, i32, i32, ptr, ptr, i32, %struct.LockInfoData, ptr, ptr, ptr, ptr, ptr, i8, ptr, ptr, ptr, ptr, ptr, ptr, i32, ptr, i8, ptr, ptr, i32, i8, i32, ptr, i8, ptr, ptr, ptr, ptr, ptr, ptr, ptr, i32, ptr, ptr, ptr, ptr, ptr, ptr, ptr, ptr, ptr, ptr, ptr, ptr, ptr, ptr, ptr, ptr, ptr, ptr, ptr, i32, i8, ptr }
%struct.RelFileLocator = type { i32, i32, i32 }
%struct.LockInfoData = type { %struct.LockRelId }
%struct.LockRelId = type { i32, i32 }
%struct.FormData_pg_class = type { i32, %struct.nameData, i32, i32, i32, i32, i32, i32, i32, i32, float, i32, i32, i8, i8, i8, i8, i16, i16, i8, i8, i8, i8, i8, i8, i8, i8, i32, i32, i32 }
%struct.nameData = type { [64 x i8] }
%struct.HeapTupleData = type { i32, %struct.ItemPointerData, i32, ptr }
%struct.ItemPointerData = type { %struct.BlockIdData, i16 }
%struct.BlockIdData = type { i16, i16 }
%struct.FormData_pg_rewrite = type { i32, %struct.nameData, i32, i8, i8, i8 }
%struct.HeapTupleHeaderData = type { %union.anon, %struct.ItemPointerData, i16, i16, i8, [0 x i8] }
%union.anon = type { %struct.HeapTupleFields }
%struct.HeapTupleFields = type { i32, i32, %union.anon.0 }
%union.anon.0 = type { i32 }

@.str.1 = private unnamed_addr constant [16 x i8] c"rewriteDefine.c\00", align 1
@.str.22 = private unnamed_addr constant [43 x i8] c"rule \22%s\22 for relation \22%s\22 does not exist\00", align 1
@object_access_hook = external global ptr, align 8
@__func__.RenameRewriteRule = private unnamed_addr constant [18 x i8] c"RenameRewriteRule\00", align 1
@.str.23 = private unnamed_addr constant [43 x i8] c"rule \22%s\22 for relation \22%s\22 already exists\00", align 1
@.str.24 = private unnamed_addr constant [42 x i8] c"renaming an ON SELECT rule is not allowed\00", align 1

; Function Attrs: inlinehint nounwind uwtable
define internal ptr @GETSTRUCT(ptr noundef %0) #6 {
  %2 = alloca ptr, align 8
  store ptr %0, ptr %2, align 8
  %3 = load ptr, ptr %2, align 8
  %4 = getelementptr inbounds nuw %struct.HeapTupleData, ptr %3, i32 0, i32 3
  %5 = load ptr, ptr %4, align 8
  %6 = load ptr, ptr %2, align 8
  %7 = getelementptr inbounds nuw %struct.HeapTupleData, ptr %6, i32 0, i32 3
  %8 = load ptr, ptr %7, align 8
  %9 = getelementptr inbounds nuw %struct.HeapTupleHeaderData, ptr %8, i32 0, i32 4
  %10 = load i8, ptr %9, align 2
  %11 = zext i8 %10 to i32
  %12 = sext i32 %11 to i64
  %13 = getelementptr inbounds i8, ptr %5, i64 %12
  ret ptr %13
}

; Function Attrs: inlinehint nounwind uwtable
define internal i64 @PointerGetDatum(ptr noundef %0) #6 {
  %2 = alloca ptr, align 8
  store ptr %0, ptr %2, align 8
  %3 = load ptr, ptr %2, align 8
  %4 = ptrtoint ptr %3 to i64
  ret i64 %4
}

; Function Attrs: inlinehint nounwind uwtable
define internal i64 @ObjectIdGetDatum(i32 noundef %0) #6 {
  %2 = alloca i32, align 4
  store i32 %0, ptr %2, align 4
  %3 = load i32, ptr %2, align 4
  %4 = zext i32 %3 to i64
  ret i64 %4
}

; Function Attrs: nounwind uwtable
define dso_local { i64, i32 } @RenameRewriteRule(ptr noundef %0, ptr noundef %1, ptr noundef %2) #0 {
  %4 = alloca %struct.ObjectAddress, align 4
  %5 = alloca ptr, align 8
  %6 = alloca ptr, align 8
  %7 = alloca ptr, align 8
  %8 = alloca i32, align 4
  %9 = alloca ptr, align 8
  %10 = alloca ptr, align 8
  %11 = alloca ptr, align 8
  %12 = alloca ptr, align 8
  %13 = alloca i32, align 4
  %14 = alloca { i64, i32 }, align 8
  store ptr %0, ptr %5, align 8
  store ptr %1, ptr %6, align 8
  store ptr %2, ptr %7, align 8
  call void @llvm.lifetime.start.p0(i64 4, ptr %8) #8
  call void @llvm.lifetime.start.p0(i64 8, ptr %9) #8
  call void @llvm.lifetime.start.p0(i64 8, ptr %10) #8
  call void @llvm.lifetime.start.p0(i64 8, ptr %11) #8
  call void @llvm.lifetime.start.p0(i64 8, ptr %12) #8
  call void @llvm.lifetime.start.p0(i64 4, ptr %13) #8
  %15 = load ptr, ptr %5, align 8
  %16 = call i32 @RangeVarGetRelidExtended(ptr noundef %15, i32 noundef 8, i32 noundef 0, ptr noundef @RangeVarCallbackForRenameRule, ptr noundef null)
  store i32 %16, ptr %8, align 4
  %17 = load i32, ptr %8, align 4
  %18 = call ptr @relation_open(i32 noundef %17, i32 noundef 0)
  store ptr %18, ptr %9, align 8
  %19 = call ptr @table_open(i32 noundef 2618, i32 noundef 3)
  store ptr %19, ptr %10, align 8
  %20 = load i32, ptr %8, align 4
  %21 = call i64 @ObjectIdGetDatum(i32 noundef %20)
  %22 = load ptr, ptr %6, align 8
  %23 = call i64 @PointerGetDatum(ptr noundef %22)
  %24 = call ptr @SearchSysCacheCopy(i32 noundef 60, i64 noundef %21, i64 noundef %23, i64 noundef 0, i64 noundef 0)
  store ptr %24, ptr %11, align 8
  %25 = load ptr, ptr %11, align 8
  %26 = icmp ne ptr %25, null
  br i1 %26, label %46, label %27

27:                                               ; preds = %3
  br label %28

28:                                               ; preds = %27
  br i1 true, label %29, label %31

29:                                               ; preds = %28
  %30 = call zeroext i1 @errstart_cold(i32 noundef 21, ptr noundef null) #9
  br i1 %30, label %33, label %43

31:                                               ; preds = %28
  %32 = call zeroext i1 @errstart(i32 noundef 21, ptr noundef null)
  br i1 %32, label %33, label %43

33:                                               ; preds = %31, %29
  %34 = call i32 @errcode(i32 noundef 67137668)
  %35 = load ptr, ptr %6, align 8
  %36 = load ptr, ptr %9, align 8
  %37 = getelementptr inbounds nuw %struct.RelationData, ptr %36, i32 0, i32 13
  %38 = load ptr, ptr %37, align 8
  %39 = getelementptr inbounds nuw %struct.FormData_pg_class, ptr %38, i32 0, i32 1
  %40 = getelementptr inbounds nuw %struct.nameData, ptr %39, i32 0, i32 0
  %41 = getelementptr inbounds [64 x i8], ptr %40, i64 0, i64 0
  %42 = call i32 (ptr, ...) @errmsg(ptr noundef @.str.22, ptr noundef %35, ptr noundef %41)
  call void @errfinish(ptr noundef @.str.1, i32 noundef 827, ptr noundef @__func__.RenameRewriteRule)
  br label %43

43:                                               ; preds = %33, %31, %29
  unreachable

44:                                               ; No predecessors!
  br label %45

45:                                               ; preds = %44
  br label %46

46:                                               ; preds = %45, %3
  %47 = load ptr, ptr %11, align 8
  %48 = call ptr @GETSTRUCT(ptr noundef %47)
  store ptr %48, ptr %12, align 8
  %49 = load ptr, ptr %12, align 8
  %50 = getelementptr inbounds nuw %struct.FormData_pg_rewrite, ptr %49, i32 0, i32 0
  %51 = load i32, ptr %50, align 4
  store i32 %51, ptr %13, align 4
  %52 = load i32, ptr %8, align 4
  %53 = load ptr, ptr %7, align 8
  %54 = call zeroext i1 @IsDefinedRewriteRule(i32 noundef %52, ptr noundef %53)
  br i1 %54, label %55, label %74

55:                                               ; preds = %46
  br label %56

56:                                               ; preds = %55
  br i1 true, label %57, label %59

57:                                               ; preds = %56
  %58 = call zeroext i1 @errstart_cold(i32 noundef 21, ptr noundef null) #9
  br i1 %58, label %61, label %71

59:                                               ; preds = %56
  %60 = call zeroext i1 @errstart(i32 noundef 21, ptr noundef null)
  br i1 %60, label %61, label %71

61:                                               ; preds = %59, %57
  %62 = call i32 @errcode(i32 noundef 290948)
  %63 = load ptr, ptr %7, align 8
  %64 = load ptr, ptr %9, align 8
  %65 = getelementptr inbounds nuw %struct.RelationData, ptr %64, i32 0, i32 13
  %66 = load ptr, ptr %65, align 8
  %67 = getelementptr inbounds nuw %struct.FormData_pg_class, ptr %66, i32 0, i32 1
  %68 = getelementptr inbounds nuw %struct.nameData, ptr %67, i32 0, i32 0
  %69 = getelementptr inbounds [64 x i8], ptr %68, i64 0, i64 0
  %70 = call i32 (ptr, ...) @errmsg(ptr noundef @.str.23, ptr noundef %63, ptr noundef %69)
  call void @errfinish(ptr noundef @.str.1, i32 noundef 836, ptr noundef @__func__.RenameRewriteRule)
  br label %71

71:                                               ; preds = %61, %59, %57
  unreachable

72:                                               ; No predecessors!
  br label %73

73:                                               ; preds = %72
  br label %74

74:                                               ; preds = %73, %46
  %75 = load ptr, ptr %12, align 8
  %76 = getelementptr inbounds nuw %struct.FormData_pg_rewrite, ptr %75, i32 0, i32 3
  %77 = load i8, ptr %76, align 4
  %78 = sext i8 %77 to i32
  %79 = icmp eq i32 %78, 49
  br i1 %79, label %80, label %92

80:                                               ; preds = %74
  br label %81

81:                                               ; preds = %80
  br i1 true, label %82, label %84

82:                                               ; preds = %81
  %83 = call zeroext i1 @errstart_cold(i32 noundef 21, ptr noundef null) #9
  br i1 %83, label %86, label %89

84:                                               ; preds = %81
  %85 = call zeroext i1 @errstart(i32 noundef 21, ptr noundef null)
  br i1 %85, label %86, label %89

86:                                               ; preds = %84, %82
  %87 = call i32 @errcode(i32 noundef 117833860)
  %88 = call i32 (ptr, ...) @errmsg(ptr noundef @.str.24)
  call void @errfinish(ptr noundef @.str.1, i32 noundef 845, ptr noundef @__func__.RenameRewriteRule)
  br label %89

89:                                               ; preds = %86, %84, %82
  unreachable

90:                                               ; No predecessors!
  br label %91

91:                                               ; preds = %90
  br label %92

92:                                               ; preds = %91, %74
  %93 = load ptr, ptr %12, align 8
  %94 = getelementptr inbounds nuw %struct.FormData_pg_rewrite, ptr %93, i32 0, i32 1
  %95 = load ptr, ptr %7, align 8
  call void @namestrcpy(ptr noundef %94, ptr noundef %95)
  %96 = load ptr, ptr %10, align 8
  %97 = load ptr, ptr %11, align 8
  %98 = getelementptr inbounds nuw %struct.HeapTupleData, ptr %97, i32 0, i32 1
  %99 = load ptr, ptr %11, align 8
  call void @CatalogTupleUpdate(ptr noundef %96, ptr noundef %98, ptr noundef %99)
  br label %100

100:                                              ; preds = %92
  %101 = load ptr, ptr @object_access_hook, align 8
  %102 = icmp ne ptr %101, null
  br i1 %102, label %103, label %105

103:                                              ; preds = %100
  %104 = load i32, ptr %13, align 4
  call void @RunObjectPostAlterHook(i32 noundef 2618, i32 noundef %104, i32 noundef 0, i32 noundef 0, i1 noundef zeroext false)
  br label %105

105:                                              ; preds = %103, %100
  br label %106

106:                                              ; preds = %105
  br label %107

107:                                              ; preds = %106
  %108 = load ptr, ptr %11, align 8
  call void @heap_freetuple(ptr noundef %108)
  %109 = load ptr, ptr %10, align 8
  call void @table_close(ptr noundef %109, i32 noundef 3)
  %110 = load ptr, ptr %9, align 8
  call void @CacheInvalidateRelcache(ptr noundef %110)
  br label %111

111:                                              ; preds = %107
  %112 = getelementptr inbounds nuw %struct.ObjectAddress, ptr %4, i32 0, i32 0
  store i32 2618, ptr %112, align 4
  %113 = load i32, ptr %13, align 4
  %114 = getelementptr inbounds nuw %struct.ObjectAddress, ptr %4, i32 0, i32 1
  store i32 %113, ptr %114, align 4
  %115 = getelementptr inbounds nuw %struct.ObjectAddress, ptr %4, i32 0, i32 2
  store i32 0, ptr %115, align 4
  br label %116

116:                                              ; preds = %111
  br label %117

117:                                              ; preds = %116
  %118 = load ptr, ptr %9, align 8
  call void @relation_close(ptr noundef %118, i32 noundef 0)
  call void @llvm.lifetime.end.p0(i64 4, ptr %13) #8
  call void @llvm.lifetime.end.p0(i64 8, ptr %12) #8
  call void @llvm.lifetime.end.p0(i64 8, ptr %11) #8
  call void @llvm.lifetime.end.p0(i64 8, ptr %10) #8
  call void @llvm.lifetime.end.p0(i64 8, ptr %9) #8
  call void @llvm.lifetime.end.p0(i64 4, ptr %8) #8
  call void @llvm.memcpy.p0.p0.i64(ptr align 8 %14, ptr align 4 %4, i64 12, i1 false)
  %119 = load { i64, i32 }, ptr %14, align 8
  ret { i64, i32 } %119
}