; Function Attrs: nounwind uwtable
define dso_local { i64, i32 } @RenameRewriteRule(ptr noundef %0, ptr noundef %1, ptr noundef %2) local_unnamed_addr #0 {
  %4 = tail call i32 @RangeVarGetRelidExtended(ptr noundef %0, i32 noundef 8, i32 noundef 0, ptr noundef nonnull @RangeVarCallbackForRenameRule, ptr noundef null) #6
  %5 = tail call ptr @relation_open(i32 noundef %4, i32 noundef 0) #6
  %6 = tail call ptr @table_open(i32 noundef 2618, i32 noundef 3) #6
  %7 = zext i32 %4 to i64
  %8 = ptrtoint ptr %1 to i64
  %9 = tail call ptr @SearchSysCacheCopy(i32 noundef 60, i64 noundef %7, i64 noundef %8, i64 noundef 0, i64 noundef 0) #6
  %.not = icmp eq ptr %9, null
  br i1 %.not, label %10, label %17

10:                                               ; preds = %3
  %11 = tail call zeroext i1 @errstart_cold(i32 noundef 21, ptr noundef null) #7
  tail call void @llvm.assume(i1 %11)
  %12 = tail call i32 @errcode(i32 noundef 67137668) #6
  %13 = getelementptr inbounds nuw i8, ptr %5, i64 56
  %14 = load ptr, ptr %13, align 8
  %15 = getelementptr inbounds nuw i8, ptr %14, i64 4
  %16 = tail call i32 (ptr, ...) @errmsg(ptr noundef nonnull @.str.22, ptr noundef %1, ptr noundef nonnull %15) #6
  tail call void @errfinish(ptr noundef nonnull @.str.1, i32 noundef 827, ptr noundef nonnull @__func__.RenameRewriteRule) #6
  unreachable

17:                                               ; preds = %3
  %18 = getelementptr i8, ptr %9, i64 16
  %.val = load ptr, ptr %18, align 8
  %19 = getelementptr inbounds nuw i8, ptr %.val, i64 22
  %20 = load i8, ptr %19, align 2
  %21 = zext i8 %20 to i64
  %22 = getelementptr inbounds nuw i8, ptr %.val, i64 %21
  %23 = load i32, ptr %22, align 4
  %24 = tail call zeroext i1 @IsDefinedRewriteRule(i32 noundef %4, ptr noundef %2) #6
  br i1 %24, label %25, label %32

25:                                               ; preds = %17
  %26 = tail call zeroext i1 @errstart_cold(i32 noundef 21, ptr noundef null) #7
  tail call void @llvm.assume(i1 %26)
  %27 = tail call i32 @errcode(i32 noundef 290948) #6
  %28 = getelementptr inbounds nuw i8, ptr %5, i64 56
  %29 = load ptr, ptr %28, align 8
  %30 = getelementptr inbounds nuw i8, ptr %29, i64 4
  %31 = tail call i32 (ptr, ...) @errmsg(ptr noundef nonnull @.str.23, ptr noundef %2, ptr noundef nonnull %30) #6
  tail call void @errfinish(ptr noundef nonnull @.str.1, i32 noundef 836, ptr noundef nonnull @__func__.RenameRewriteRule) #6
  unreachable

32:                                               ; preds = %17
  %33 = getelementptr inbounds nuw i8, ptr %22, i64 72
  %34 = load i8, ptr %33, align 4
  %35 = icmp eq i8 %34, 49
  br i1 %35, label %36, label %40

36:                                               ; preds = %32
  %37 = tail call zeroext i1 @errstart_cold(i32 noundef 21, ptr noundef null) #7
  tail call void @llvm.assume(i1 %37)
  %38 = tail call i32 @errcode(i32 noundef 117833860) #6
  %39 = tail call i32 (ptr, ...) @errmsg(ptr noundef nonnull @.str.24) #6
  tail call void @errfinish(ptr noundef nonnull @.str.1, i32 noundef 845, ptr noundef nonnull @__func__.RenameRewriteRule) #6
  unreachable

40:                                               ; preds = %32
  %41 = getelementptr inbounds nuw i8, ptr %22, i64 4
  tail call void @namestrcpy(ptr noundef nonnull %41, ptr noundef %2) #6
  %42 = getelementptr inbounds nuw i8, ptr %9, i64 4
  tail call void @CatalogTupleUpdate(ptr noundef %6, ptr noundef nonnull %42, ptr noundef nonnull %9) #6
  %43 = load ptr, ptr @object_access_hook, align 8
  %.not26 = icmp eq ptr %43, null
  br i1 %.not26, label %45, label %44

44:                                               ; preds = %40
  tail call void @RunObjectPostAlterHook(i32 noundef 2618, i32 noundef %23, i32 noundef 0, i32 noundef 0, i1 noundef zeroext false) #6
  br label %45

45:                                               ; preds = %44, %40
  tail call void @heap_freetuple(ptr noundef nonnull %9) #6
  tail call void @table_close(ptr noundef %6, i32 noundef 3) #6
  tail call void @CacheInvalidateRelcache(ptr noundef %5) #6
  tail call void @relation_close(ptr noundef %5, i32 noundef 0) #6
  %.sroa.225.0.insert.ext = zext i32 %23 to i64
  %.sroa.225.0.insert.shift = shl nuw i64 %.sroa.225.0.insert.ext, 32
  %.sroa.024.0.insert.insert = or disjoint i64 %.sroa.225.0.insert.shift, 2618
  %.fca.0.insert = insertvalue { i64, i32 } poison, i64 %.sroa.024.0.insert.insert, 0
  %.fca.1.insert = insertvalue { i64, i32 } %.fca.0.insert, i32 0, 1
  ret { i64, i32 } %.fca.1.insert
}